target datalayout = "e-m:e-p270:32:32-p271:32:32-p272:64:64-i64:64-i128:128-f80:128-n8:16:32:64-S128"
target triple = "x86_64-pc-linux-gnu"

%struct.LogicalRepCommitData = type { i64, i64, i64 }

@.str.1 = private unnamed_addr constant [8 x i8] c"proto.c\00", align 1
@.str.2 = private unnamed_addr constant [40 x i8] c"unrecognized flags %u in commit message\00", align 1
@__func__.logicalrep_read_commit = private unnamed_addr constant [23 x i8] c"logicalrep_read_commit\00", align 1

; Function Attrs: nounwind uwtable
define dso_local void @logicalrep_read_commit(ptr noundef %0, ptr noundef %1) #0 {
  %3 = alloca ptr, align 8
  %4 = alloca ptr, align 8
  %5 = alloca i8, align 1
  store ptr %0, ptr %3, align 8
  store ptr %1, ptr %4, align 8
  call void @llvm.lifetime.start.p0(i64 1, ptr %5) #9
  %6 = load ptr, ptr %3, align 8
  %7 = call i32 @pq_getmsgbyte(ptr noundef %6)
  %8 = trunc i32 %7 to i8
  store i8 %8, ptr %5, align 1
  %9 = load i8, ptr %5, align 1
  %10 = zext i8 %9 to i32
  %11 = icmp ne i32 %10, 0
  br i1 %11, label %12, label %25

12:                                               ; preds = %2
  br label %13

13:                                               ; preds = %12
  br i1 true, label %14, label %16

14:                                               ; preds = %13
  %15 = call zeroext i1 @errstart_cold(i32 noundef 21, ptr noundef null) #8
  br i1 %15, label %18, label %22

16:                                               ; preds = %13
  %17 = call zeroext i1 @errstart(i32 noundef 21, ptr noundef null)
  br i1 %17, label %18, label %22

18:                                               ; preds = %16, %14
  %19 = load i8, ptr %5, align 1
  %20 = zext i8 %19 to i32
  %21 = call i32 (ptr, ...) @errmsg_internal(ptr noundef @.str.2, i32 noundef %20)
  call void @errfinish(ptr noundef @.str.1, i32 noundef 104, ptr noundef @__func__.logicalrep_read_commit)
  br label %22

22:                                               ; preds = %18, %16, %14
  unreachable

23:                                               ; No predecessors!
  br label %24

24:                                               ; preds = %23
  br label %25

25:                                               ; preds = %24, %2
  %26 = load ptr, ptr %3, align 8
  %27 = call i64 @pq_getmsgint64(ptr noundef %26)
  %28 = load ptr, ptr %4, align 8
  %29 = getelementptr inbounds nuw %struct.LogicalRepCommitData, ptr %28, i32 0, i32 0
  store i64 %27, ptr %29, align 8
  %30 = load ptr, ptr %3, align 8
  %31 = call i64 @pq_getmsgint64(ptr noundef %30)
  %32 = load ptr, ptr %4, align 8
  %33 = getelementptr inbounds nuw %struct.LogicalRepCommitData, ptr %32, i32 0, i32 1
  store i64 %31, ptr %33, align 8
  %34 = load ptr, ptr %3, align 8
  %35 = call i64 @pq_getmsgint64(ptr noundef %34)
  %36 = load ptr, ptr %4, align 8
  %37 = getelementptr inbounds nuw %struct.LogicalRepCommitData, ptr %36, i32 0, i32 2
  store i64 %35, ptr %37, align 8
  call void @llvm.lifetime.end.p0(i64 1, ptr %5) #9
  ret void
}