; Function Attrs: nounwind uwtable
define dso_local void @logicalrep_read_commit(ptr noundef %0, ptr noundef writeonly captures(none) %1) local_unnamed_addr #0 {
  %3 = tail call i32 @pq_getmsgbyte(ptr noundef %0) #8
  %4 = and i32 %3, 255
  %.not = icmp eq i32 %4, 0
  br i1 %.not, label %8, label %5

5:                                                ; preds = %2
  %6 = tail call zeroext i1 @errstart_cold(i32 noundef 21, ptr noundef null) #9
  tail call void @llvm.assume(i1 %6)
  %7 = tail call i32 (ptr, ...) @errmsg_internal(ptr noundef nonnull @.str.2, i32 noundef %4) #8
  tail call void @errfinish(ptr noundef nonnull @.str.1, i32 noundef 104, ptr noundef nonnull @__func__.logicalrep_read_commit) #8
  unreachable

8:                                                ; preds = %2
  %9 = tail call i64 @pq_getmsgint64(ptr noundef %0) #8
  store i64 %9, ptr %1, align 8
  %10 = tail call i64 @pq_getmsgint64(ptr noundef %0) #8
  %11 = getelementptr inbounds nuw i8, ptr %1, i64 8
  store i64 %10, ptr %11, align 8
  %12 = tail call i64 @pq_getmsgint64(ptr noundef %0) #8
  %13 = getelementptr inbounds nuw i8, ptr %1, i64 16
  store i64 %12, ptr %13, align 8
  ret void
}